target datalayout = "e-m:e-p270:32:32-p271:32:32-p272:64:64-i64:64-i128:128-f80:128-n8:16:32:64-S128"
target triple = "x86_64-pc-linux-gnu"

%struct.radix_obj_st = type { ptr, ptr, i8 }
%struct.ssl_conn_close_info_st = type { i64, i64, ptr, i64, i32 }

@.str.226 = private unnamed_addr constant [2 x i8] c"\0A\00", align 1
@.str.292 = private unnamed_addr constant [20 x i8] c"      - %-16s @ %p\0A\00", align 1
@.str.293 = private unnamed_addr constant [11 x i8] c"          \00", align 1
@.str.294 = private unnamed_addr constant [4 x i8] c"SSL\00", align 1
@.str.295 = private unnamed_addr constant [5 x i8] c"QLSO\00", align 1
@.str.296 = private unnamed_addr constant [5 x i8] c"QCSO\00", align 1
@.str.297 = private unnamed_addr constant [5 x i8] c"QSSO\00", align 1
@.str.298 = private unnamed_addr constant [21 x i8] c"%sType:          %s\0A\00", align 1
@.str.299 = private unnamed_addr constant [2 x i8] c"?\00", align 1
@.str.300 = private unnamed_addr constant [65 x i8] c"%sConnection is closed: %s(%llu)/%s(%llu), %s, %s, reason: \22%s\22\0A\00", align 1
@.str.301 = private unnamed_addr constant [6 x i8] c"local\00", align 1
@.str.302 = private unnamed_addr constant [7 x i8] c"remote\00", align 1
@.str.303 = private unnamed_addr constant [10 x i8] c"transport\00", align 1
@.str.304 = private unnamed_addr constant [4 x i8] c"app\00", align 1
@.str.305 = private unnamed_addr constant [2 x i8] c"-\00", align 1
@.str.306 = private unnamed_addr constant [19 x i8] c"%sStream ID: %llu\0A\00", align 1
@.str.307 = private unnamed_addr constant [14 x i8] c"%s%-15s%s(%d)\00", align 1
@.str.308 = private unnamed_addr constant [14 x i8] c"Write state: \00", align 1
@.str.309 = private unnamed_addr constant [13 x i8] c"Read state: \00", align 1
@.str.310 = private unnamed_addr constant [7 x i8] c", %llu\00", align 1
@.str.311 = private unnamed_addr constant [5 x i8] c"none\00", align 1
@.str.312 = private unnamed_addr constant [3 x i8] c"OK\00", align 1
@.str.313 = private unnamed_addr constant [10 x i8] c"wrong-dir\00", align 1
@.str.314 = private unnamed_addr constant [9 x i8] c"finished\00", align 1
@.str.315 = private unnamed_addr constant [12 x i8] c"reset-local\00", align 1
@.str.316 = private unnamed_addr constant [13 x i8] c"reset-remote\00", align 1
@.str.317 = private unnamed_addr constant [12 x i8] c"conn-closed\00", align 1

; Function Attrs: nounwind uwtable
define internal ptr @stream_state_to_str(i32 noundef %0) #0 {
  %2 = alloca ptr, align 8
  %3 = alloca i32, align 4
  store i32 %0, ptr %3, align 4, !tbaa !9
  %4 = load i32, ptr %3, align 4, !tbaa !9
  switch i32 %4, label %12 [
    i32 0, label %5
    i32 1, label %6
    i32 2, label %7
    i32 3, label %8
    i32 4, label %9
    i32 5, label %10
    i32 6, label %11
  ]

5:                                                ; preds = %1
  store ptr @.str.311, ptr %2, align 8
  br label %13

6:                                                ; preds = %1
  store ptr @.str.312, ptr %2, align 8
  br label %13

7:                                                ; preds = %1
  store ptr @.str.313, ptr %2, align 8
  br label %13

8:                                                ; preds = %1
  store ptr @.str.314, ptr %2, align 8
  br label %13

9:                                                ; preds = %1
  store ptr @.str.315, ptr %2, align 8
  br label %13

10:                                               ; preds = %1
  store ptr @.str.316, ptr %2, align 8
  br label %13

11:                                               ; preds = %1
  store ptr @.str.317, ptr %2, align 8
  br label %13

12:                                               ; preds = %1
  store ptr @.str.299, ptr %2, align 8
  br label %13

13:                                               ; preds = %12, %11, %10, %9, %8, %7, %6, %5
  %14 = load ptr, ptr %2, align 8
  ret ptr %14
}

; Function Attrs: nounwind uwtable
define internal void @report_ssl_state(ptr noundef %0, ptr noundef %1, i32 noundef %2, i32 noundef %3, i64 noundef %4) #0 {
  %6 = alloca ptr, align 8
  %7 = alloca ptr, align 8
  %8 = alloca i32, align 4
  %9 = alloca i32, align 4
  %10 = alloca i64, align 8
  %11 = alloca ptr, align 8
  store ptr %0, ptr %6, align 8, !tbaa !13
  store ptr %1, ptr %7, align 8, !tbaa !4
  store i32 %2, ptr %8, align 4, !tbaa !9
  store i32 %3, ptr %9, align 4, !tbaa !9
  store i64 %4, ptr %10, align 8, !tbaa !19
  call void @llvm.lifetime.start.p0(i64 8, ptr %11) #9
  %12 = load i32, ptr %9, align 4, !tbaa !9
  %13 = call ptr @stream_state_to_str(i32 noundef %12)
  store ptr %13, ptr %11, align 8, !tbaa !4
  %14 = load ptr, ptr %6, align 8, !tbaa !13
  %15 = load ptr, ptr %7, align 8, !tbaa !4
  %16 = load i32, ptr %8, align 4, !tbaa !9
  %17 = icmp ne i32 %16, 0
  %18 = select i1 %17, ptr @.str.308, ptr @.str.309
  %19 = load ptr, ptr %11, align 8, !tbaa !4
  %20 = load i32, ptr %9, align 4, !tbaa !9
  %21 = call i32 (ptr, ptr, ...) @BIO_printf(ptr noundef %14, ptr noundef @.str.307, ptr noundef %15, ptr noundef %18, ptr noundef %19, i32 noundef %20)
  %22 = load i64, ptr %10, align 8, !tbaa !19
  %23 = icmp ne i64 %22, -1
  br i1 %23, label %24, label %28

24:                                               ; preds = %5
  %25 = load ptr, ptr %6, align 8, !tbaa !13
  %26 = load i64, ptr %10, align 8, !tbaa !19
  %27 = call i32 (ptr, ptr, ...) @BIO_printf(ptr noundef %25, ptr noundef @.str.310, i64 noundef %26)
  br label %28

28:                                               ; preds = %24, %5
  %29 = load ptr, ptr %6, align 8, !tbaa !13
  %30 = call i32 (ptr, ptr, ...) @BIO_printf(ptr noundef %29, ptr noundef @.str.226)
  call void @llvm.lifetime.end.p0(i64 8, ptr %11) #9
  ret void
}

; Function Attrs: nounwind uwtable
define internal void @report_ssl(ptr noundef %0, ptr noundef %1, ptr noundef %2) #0 {
  %4 = alloca ptr, align 8
  %5 = alloca ptr, align 8
  %6 = alloca ptr, align 8
  %7 = alloca ptr, align 8
  %8 = alloca i32, align 4
  %9 = alloca i32, align 4
  %10 = alloca i32, align 4
  %11 = alloca %struct.ssl_conn_close_info_st, align 8
  %12 = alloca ptr, align 8
  %13 = alloca ptr, align 8
  %14 = alloca i64, align 8
  %15 = alloca i64, align 8
  %16 = alloca i64, align 8
  %17 = alloca i32, align 4
  %18 = alloca i32, align 4
  store ptr %0, ptr %4, align 8, !tbaa !49
  store ptr %1, ptr %5, align 8, !tbaa !13
  store ptr %2, ptr %6, align 8, !tbaa !4
  call void @llvm.lifetime.start.p0(i64 8, ptr %7) #9
  store ptr @.str.294, ptr %7, align 8, !tbaa !4
  call void @llvm.lifetime.start.p0(i64 4, ptr %8) #9
  %19 = load ptr, ptr %4, align 8, !tbaa !49
  %20 = call i32 @SSL_is_quic(ptr noundef %19)
  store i32 %20, ptr %8, align 4, !tbaa !9
  call void @llvm.lifetime.start.p0(i64 4, ptr %9) #9
  store i32 0, ptr %9, align 4, !tbaa !9
  call void @llvm.lifetime.start.p0(i64 4, ptr %10) #9
  store i32 0, ptr %10, align 4, !tbaa !9
  call void @llvm.lifetime.start.p0(i64 40, ptr %11) #9
  call void @llvm.memset.p0.i64(ptr align 8 %11, i8 0, i64 40, i1 false)
  call void @llvm.lifetime.start.p0(i64 8, ptr %12) #9
  call void @llvm.lifetime.start.p0(i64 8, ptr %13) #9
  %21 = load i32, ptr %8, align 4, !tbaa !9
  %22 = icmp ne i32 %21, 0
  br i1 %22, label %23, label %38

23:                                               ; preds = %3
  %24 = load ptr, ptr %4, align 8, !tbaa !49
  %25 = call i32 @SSL_is_connection(ptr noundef %24)
  store i32 %25, ptr %9, align 4, !tbaa !9
  %26 = load ptr, ptr %4, align 8, !tbaa !49
  %27 = call i32 @SSL_is_listener(ptr noundef %26)
  store i32 %27, ptr %10, align 4, !tbaa !9
  %28 = load i32, ptr %10, align 4, !tbaa !9
  %29 = icmp ne i32 %28, 0
  br i1 %29, label %30, label %31

30:                                               ; preds = %23
  store ptr @.str.295, ptr %7, align 8, !tbaa !4
  br label %37

31:                                               ; preds = %23
  %32 = load i32, ptr %9, align 4, !tbaa !9
  %33 = icmp ne i32 %32, 0
  br i1 %33, label %34, label %35

34:                                               ; preds = %31
  store ptr @.str.296, ptr %7, align 8, !tbaa !4
  br label %36

35:                                               ; preds = %31
  store ptr @.str.297, ptr %7, align 8, !tbaa !4
  br label %36

36:                                               ; preds = %35, %34
  br label %37

37:                                               ; preds = %36, %30
  br label %38

38:                                               ; preds = %37, %3
  %39 = load ptr, ptr %5, align 8, !tbaa !13
  %40 = load ptr, ptr %6, align 8, !tbaa !4
  %41 = load ptr, ptr %7, align 8, !tbaa !4
  %42 = call i32 (ptr, ptr, ...) @BIO_printf(ptr noundef %39, ptr noundef @.str.298, ptr noundef %40, ptr noundef %41)
  %43 = load i32, ptr %8, align 4, !tbaa !9
  %44 = icmp ne i32 %43, 0
  br i1 %44, label %45, label %95

45:                                               ; preds = %38
  %46 = load i32, ptr %9, align 4, !tbaa !9
  %47 = icmp ne i32 %46, 0
  br i1 %47, label %48, label %95

48:                                               ; preds = %45
  %49 = load ptr, ptr %4, align 8, !tbaa !49
  %50 = call i32 @SSL_get_conn_close_info(ptr noundef %49, ptr noundef %11, i64 noundef 40)
  %51 = icmp ne i32 %50, 0
  br i1 %51, label %52, label %95

52:                                               ; preds = %48
  %53 = getelementptr inbounds nuw %struct.ssl_conn_close_info_st, ptr %11, i32 0, i32 0
  %54 = load i64, ptr %53, align 8, !tbaa !166
  %55 = call ptr @ossl_quic_err_to_string(i64 noundef %54)
  store ptr %55, ptr %12, align 8, !tbaa !4
  %56 = getelementptr inbounds nuw %struct.ssl_conn_close_info_st, ptr %11, i32 0, i32 1
  %57 = load i64, ptr %56, align 8, !tbaa !168
  %58 = call ptr @ossl_quic_frame_type_to_string(i64 noundef %57)
  store ptr %58, ptr %13, align 8, !tbaa !4
  %59 = load ptr, ptr %12, align 8, !tbaa !4
  %60 = icmp eq ptr %59, null
  br i1 %60, label %61, label %62

61:                                               ; preds = %52
  store ptr @.str.299, ptr %12, align 8, !tbaa !4
  br label %62

62:                                               ; preds = %61, %52
  %63 = load ptr, ptr %13, align 8, !tbaa !4
  %64 = icmp eq ptr %63, null
  br i1 %64, label %65, label %66

65:                                               ; preds = %62
  store ptr @.str.299, ptr %13, align 8, !tbaa !4
  br label %66

66:                                               ; preds = %65, %62
  %67 = load ptr, ptr %5, align 8, !tbaa !13
  %68 = load ptr, ptr %6, align 8, !tbaa !4
  %69 = load ptr, ptr %12, align 8, !tbaa !4
  %70 = getelementptr inbounds nuw %struct.ssl_conn_close_info_st, ptr %11, i32 0, i32 0
  %71 = load i64, ptr %70, align 8, !tbaa !166
  %72 = load ptr, ptr %13, align 8, !tbaa !4
  %73 = getelementptr inbounds nuw %struct.ssl_conn_close_info_st, ptr %11, i32 0, i32 1
  %74 = load i64, ptr %73, align 8, !tbaa !168
  %75 = getelementptr inbounds nuw %struct.ssl_conn_close_info_st, ptr %11, i32 0, i32 4
  %76 = load i32, ptr %75, align 8, !tbaa !169
  %77 = and i32 %76, 1
  %78 = icmp ne i32 %77, 0
  %79 = select i1 %78, ptr @.str.301, ptr @.str.302
  %80 = getelementptr inbounds nuw %struct.ssl_conn_close_info_st, ptr %11, i32 0, i32 4
  %81 = load i32, ptr %80, align 8, !tbaa !169
  %82 = and i32 %81, 2
  %83 = icmp ne i32 %82, 0
  %84 = select i1 %83, ptr @.str.303, ptr @.str.304
  %85 = getelementptr inbounds nuw %struct.ssl_conn_close_info_st, ptr %11, i32 0, i32 2
  %86 = load ptr, ptr %85, align 8, !tbaa !170
  %87 = icmp ne ptr %86, null
  br i1 %87, label %88, label %91

88:                                               ; preds = %66
  %89 = getelementptr inbounds nuw %struct.ssl_conn_close_info_st, ptr %11, i32 0, i32 2
  %90 = load ptr, ptr %89, align 8, !tbaa !170
  br label %92

91:                                               ; preds = %66
  br label %92

92:                                               ; preds = %91, %88
  %93 = phi ptr [ %90, %88 ], [ @.str.305, %91 ]
  %94 = call i32 (ptr, ptr, ...) @BIO_printf(ptr noundef %67, ptr noundef @.str.300, ptr noundef %68, ptr noundef %69, i64 noundef %71, ptr noundef %72, i64 noundef %74, ptr noundef %79, ptr noundef %84, ptr noundef %93)
  br label %95

95:                                               ; preds = %92, %48, %45, %38
  %96 = load i32, ptr %8, align 4, !tbaa !9
  %97 = icmp ne i32 %96, 0
  br i1 %97, label %98, label %134

98:                                               ; preds = %95
  %99 = load i32, ptr %10, align 4, !tbaa !9
  %100 = icmp ne i32 %99, 0
  br i1 %100, label %134, label %101

101:                                              ; preds = %98
  call void @llvm.lifetime.start.p0(i64 8, ptr %14) #9
  %102 = load ptr, ptr %4, align 8, !tbaa !49
  %103 = call i64 @SSL_get_stream_id(ptr noundef %102)
  store i64 %103, ptr %14, align 8, !tbaa !19
  call void @llvm.lifetime.start.p0(i64 8, ptr %15) #9
  call void @llvm.lifetime.start.p0(i64 8, ptr %16) #9
  call void @llvm.lifetime.start.p0(i64 4, ptr %17) #9
  call void @llvm.lifetime.start.p0(i64 4, ptr %18) #9
  %104 = load i64, ptr %14, align 8, !tbaa !19
  %105 = icmp ne i64 %104, -1
  br i1 %105, label %106, label %111

106:                                              ; preds = %101
  %107 = load ptr, ptr %5, align 8, !tbaa !13
  %108 = load ptr, ptr %6, align 8, !tbaa !4
  %109 = load i64, ptr %14, align 8, !tbaa !19
  %110 = call i32 (ptr, ptr, ...) @BIO_printf(ptr noundef %107, ptr noundef @.str.306, ptr noundef %108, i64 noundef %109)
  br label %111

111:                                              ; preds = %106, %101
  %112 = load ptr, ptr %4, align 8, !tbaa !49
  %113 = call i32 @SSL_get_stream_read_state(ptr noundef %112)
  store i32 %113, ptr %17, align 4, !tbaa !9
  %114 = load ptr, ptr %4, align 8, !tbaa !49
  %115 = call i32 @SSL_get_stream_write_state(ptr noundef %114)
  store i32 %115, ptr %18, align 4, !tbaa !9
  %116 = load ptr, ptr %4, align 8, !tbaa !49
  %117 = call i32 @SSL_get_stream_read_error_code(ptr noundef %116, ptr noundef %15)
  %118 = icmp ne i32 %117, 1
  br i1 %118, label %119, label %120

119:                                              ; preds = %111
  store i64 -1, ptr %15, align 8, !tbaa !19
  br label %120

120:                                              ; preds = %119, %111
  %121 = load ptr, ptr %4, align 8, !tbaa !49
  %122 = call i32 @SSL_get_stream_write_error_code(ptr noundef %121, ptr noundef %16)
  %123 = icmp ne i32 %122, 1
  br i1 %123, label %124, label %125

124:                                              ; preds = %120
  store i64 -1, ptr %16, align 8, !tbaa !19
  br label %125

125:                                              ; preds = %124, %120
  %126 = load ptr, ptr %5, align 8, !tbaa !13
  %127 = load ptr, ptr %6, align 8, !tbaa !4
  %128 = load i32, ptr %17, align 4, !tbaa !9
  %129 = load i64, ptr %15, align 8, !tbaa !19
  call void @report_ssl_state(ptr noundef %126, ptr noundef %127, i32 noundef 0, i32 noundef %128, i64 noundef %129)
  %130 = load ptr, ptr %5, align 8, !tbaa !13
  %131 = load ptr, ptr %6, align 8, !tbaa !4
  %132 = load i32, ptr %18, align 4, !tbaa !9
  %133 = load i64, ptr %16, align 8, !tbaa !19
  call void @report_ssl_state(ptr noundef %130, ptr noundef %131, i32 noundef 1, i32 noundef %132, i64 noundef %133)
  call void @llvm.lifetime.end.p0(i64 4, ptr %18) #9
  call void @llvm.lifetime.end.p0(i64 4, ptr %17) #9
  call void @llvm.lifetime.end.p0(i64 8, ptr %16) #9
  call void @llvm.lifetime.end.p0(i64 8, ptr %15) #9
  call void @llvm.lifetime.end.p0(i64 8, ptr %14) #9
  br label %134

134:                                              ; preds = %125, %98, %95
  call void @llvm.lifetime.end.p0(i64 8, ptr %13) #9
  call void @llvm.lifetime.end.p0(i64 8, ptr %12) #9
  call void @llvm.lifetime.end.p0(i64 40, ptr %11) #9
  call void @llvm.lifetime.end.p0(i64 4, ptr %10) #9
  call void @llvm.lifetime.end.p0(i64 4, ptr %9) #9
  call void @llvm.lifetime.end.p0(i64 4, ptr %8) #9
  call void @llvm.lifetime.end.p0(i64 8, ptr %7) #9
  ret void
}

; Function Attrs: nounwind uwtable
define internal void @report_obj(ptr noundef %0, ptr noundef %1) #0 {
  %3 = alloca ptr, align 8
  %4 = alloca ptr, align 8
  %5 = alloca ptr, align 8
  %6 = alloca ptr, align 8
  store ptr %0, ptr %3, align 8, !tbaa !51
  store ptr %1, ptr %4, align 8, !tbaa !41
  call void @llvm.lifetime.start.p0(i64 8, ptr %5) #9
  %7 = load ptr, ptr %4, align 8, !tbaa !41
  store ptr %7, ptr %5, align 8, !tbaa !13
  call void @llvm.lifetime.start.p0(i64 8, ptr %6) #9
  %8 = load ptr, ptr %3, align 8, !tbaa !51
  %9 = getelementptr inbounds nuw %struct.radix_obj_st, ptr %8, i32 0, i32 1
  %10 = load ptr, ptr %9, align 8, !tbaa !53
  store ptr %10, ptr %6, align 8, !tbaa !49
  %11 = load ptr, ptr %5, align 8, !tbaa !13
  %12 = load ptr, ptr %3, align 8, !tbaa !51
  %13 = getelementptr inbounds nuw %struct.radix_obj_st, ptr %12, i32 0, i32 0
  %14 = load ptr, ptr %13, align 8, !tbaa !88
  %15 = load ptr, ptr %3, align 8, !tbaa !51
  %16 = getelementptr inbounds nuw %struct.radix_obj_st, ptr %15, i32 0, i32 1
  %17 = load ptr, ptr %16, align 8, !tbaa !53
  %18 = call i32 (ptr, ptr, ...) @BIO_printf(ptr noundef %11, ptr noundef @.str.292, ptr noundef %14, ptr noundef %17)
  %19 = call i32 @ERR_set_mark()
  %20 = load ptr, ptr %6, align 8, !tbaa !49
  %21 = load ptr, ptr %5, align 8, !tbaa !13
  call void @report_ssl(ptr noundef %20, ptr noundef %21, ptr noundef @.str.293)
  %22 = call i32 @ERR_pop_to_mark()
  call void @llvm.lifetime.end.p0(i64 8, ptr %6) #9
  call void @llvm.lifetime.end.p0(i64 8, ptr %5) #9
  ret void
}