; Function Attrs: nounwind uwtable
define internal void @report_obj(ptr noundef readonly captures(none) %0, ptr noundef %1) #1 {
  %3 = alloca %struct.ssl_conn_close_info_st, align 8
  %4 = alloca i64, align 8
  %5 = alloca i64, align 8
  %6 = getelementptr inbounds nuw i8, ptr %0, i64 8
  %7 = load ptr, ptr %6, align 8, !tbaa !108
  %8 = load ptr, ptr %0, align 8, !tbaa !46
  %9 = tail call i32 (ptr, ptr, ...) @BIO_printf(ptr noundef %1, ptr noundef nonnull @.str.292, ptr noundef %8, ptr noundef %7) #12
  %10 = tail call i32 @ERR_set_mark() #12
  %11 = tail call i32 @SSL_is_quic(ptr noundef %7) #12
  call void @llvm.lifetime.start.p0(i64 40, ptr nonnull %3) #12
  call void @llvm.memset.p0.i64(ptr noundef nonnull align 8 dereferenceable(40) %3, i8 0, i64 40, i1 false)
  %.not45.i = icmp eq i32 %11, 0
  br i1 %.not45.i, label %.thread.i, label %13

.thread.i:                                        ; preds = %2
  %12 = tail call i32 (ptr, ptr, ...) @BIO_printf(ptr noundef %1, ptr noundef nonnull @.str.298, ptr noundef nonnull @.str.293, ptr noundef nonnull @.str.294) #12
  br label %report_ssl.exit

13:                                               ; preds = %2
  %14 = tail call i32 @SSL_is_connection(ptr noundef %7) #12
  %15 = tail call i32 @SSL_is_listener(ptr noundef %7) #12
  %.not.not.i = icmp eq i32 %15, 0
  %.not44.not.i = icmp eq i32 %14, 0
  br i1 %.not.not.i, label %18, label %16

16:                                               ; preds = %13
  %17 = tail call i32 (ptr, ptr, ...) @BIO_printf(ptr noundef %1, ptr noundef nonnull @.str.298, ptr noundef nonnull @.str.293, ptr noundef nonnull @.str.295) #12
  br i1 %.not44.not.i, label %report_ssl.exit, label %20

18:                                               ; preds = %13
  %.str.297..str.296.i = select i1 %.not44.not.i, ptr @.str.297, ptr @.str.296
  %19 = tail call i32 (ptr, ptr, ...) @BIO_printf(ptr noundef %1, ptr noundef nonnull @.str.298, ptr noundef nonnull @.str.293, ptr noundef nonnull %.str.297..str.296.i) #12
  br i1 %.not44.not.i, label %.critedge.i, label %20

20:                                               ; preds = %18, %16
  %21 = call i32 @SSL_get_conn_close_info(ptr noundef %7, ptr noundef nonnull %3, i64 noundef 40) #12
  %.not46.i = icmp eq i32 %21, 0
  br i1 %.not46.i, label %42, label %22

22:                                               ; preds = %20
  %23 = load i64, ptr %3, align 8, !tbaa !126
  %24 = call ptr @ossl_quic_err_to_string(i64 noundef %23) #12
  %25 = getelementptr inbounds nuw i8, ptr %3, i64 8
  %26 = load i64, ptr %25, align 8, !tbaa !128
  %27 = call ptr @ossl_quic_frame_type_to_string(i64 noundef %26) #12
  %28 = icmp eq ptr %24, null
  %spec.store.select.i = select i1 %28, ptr @.str.299, ptr %24
  %29 = icmp eq ptr %27, null
  %spec.store.select4.i = select i1 %29, ptr @.str.299, ptr %27
  %30 = load i64, ptr %3, align 8, !tbaa !126
  %31 = load i64, ptr %25, align 8, !tbaa !128
  %32 = getelementptr inbounds nuw i8, ptr %3, i64 32
  %33 = load i32, ptr %32, align 8, !tbaa !129
  %34 = and i32 %33, 1
  %.not47.i = icmp eq i32 %34, 0
  %35 = select i1 %.not47.i, ptr @.str.302, ptr @.str.301
  %36 = and i32 %33, 2
  %.not48.i = icmp eq i32 %36, 0
  %37 = select i1 %.not48.i, ptr @.str.304, ptr @.str.303
  %38 = getelementptr inbounds nuw i8, ptr %3, i64 16
  %39 = load ptr, ptr %38, align 8, !tbaa !130
  %.not49.i = icmp eq ptr %39, null
  %40 = select i1 %.not49.i, ptr @.str.305, ptr %39
  %41 = call i32 (ptr, ptr, ...) @BIO_printf(ptr noundef %1, ptr noundef nonnull @.str.300, ptr noundef nonnull @.str.293, ptr noundef nonnull %spec.store.select.i, i64 noundef %30, ptr noundef nonnull %spec.store.select4.i, i64 noundef %31, ptr noundef nonnull %35, ptr noundef nonnull %37, ptr noundef nonnull %40) #12
  br label %42

42:                                               ; preds = %22, %20
  br i1 %.not.not.i, label %.critedge.i, label %report_ssl.exit

.critedge.i:                                      ; preds = %42, %18
  %43 = call i64 @SSL_get_stream_id(ptr noundef %7) #12
  call void @llvm.lifetime.start.p0(i64 8, ptr nonnull %4) #12
  call void @llvm.lifetime.start.p0(i64 8, ptr nonnull %5) #12
  %.not50.i = icmp eq i64 %43, -1
  br i1 %.not50.i, label %46, label %44

44:                                               ; preds = %.critedge.i
  %45 = call i32 (ptr, ptr, ...) @BIO_printf(ptr noundef %1, ptr noundef nonnull @.str.306, ptr noundef nonnull @.str.293, i64 noundef %43) #12
  br label %46

46:                                               ; preds = %44, %.critedge.i
  %47 = call i32 @SSL_get_stream_read_state(ptr noundef %7) #12
  %48 = call i32 @SSL_get_stream_write_state(ptr noundef %7) #12
  %49 = call i32 @SSL_get_stream_read_error_code(ptr noundef %7, ptr noundef nonnull %4) #12
  %.not51.i = icmp eq i32 %49, 1
  br i1 %.not51.i, label %51, label %50

50:                                               ; preds = %46
  store i64 -1, ptr %4, align 8, !tbaa !82
  br label %51

51:                                               ; preds = %50, %46
  %52 = call i32 @SSL_get_stream_write_error_code(ptr noundef %7, ptr noundef nonnull %5) #12
  %.not52.i = icmp eq i32 %52, 1
  br i1 %.not52.i, label %54, label %53

53:                                               ; preds = %51
  store i64 -1, ptr %5, align 8, !tbaa !82
  br label %54

54:                                               ; preds = %53, %51
  %55 = load i64, ptr %4, align 8, !tbaa !82
  %56 = icmp ult i32 %47, 7
  br i1 %56, label %switch.lookup, label %stream_state_to_str.exit.i.i

switch.lookup:                                    ; preds = %54
  %57 = zext nneg i32 %47 to i64
  %switch.gep = getelementptr inbounds nuw [7 x ptr], ptr @switch.table.report_obj.24, i64 0, i64 %57
  %switch.load = load ptr, ptr %switch.gep, align 8
  br label %stream_state_to_str.exit.i.i

stream_state_to_str.exit.i.i:                     ; preds = %54, %switch.lookup
  %.0.i.i.i = phi ptr [ %switch.load, %switch.lookup ], [ @.str.299, %54 ]
  %58 = call i32 (ptr, ptr, ...) @BIO_printf(ptr noundef %1, ptr noundef nonnull @.str.307, ptr noundef nonnull @.str.293, ptr noundef nonnull @.str.309, ptr noundef nonnull %.0.i.i.i, i32 noundef %47) #12
  %.not9.i.i = icmp eq i64 %55, -1
  br i1 %.not9.i.i, label %report_ssl_state.exit.i, label %59

59:                                               ; preds = %stream_state_to_str.exit.i.i
  %60 = call i32 (ptr, ptr, ...) @BIO_printf(ptr noundef %1, ptr noundef nonnull @.str.310, i64 noundef %55) #12
  br label %report_ssl_state.exit.i

report_ssl_state.exit.i:                          ; preds = %59, %stream_state_to_str.exit.i.i
  %61 = call i32 (ptr, ptr, ...) @BIO_printf(ptr noundef %1, ptr noundef nonnull @.str.226) #12
  %62 = load i64, ptr %5, align 8, !tbaa !82
  %63 = icmp ult i32 %48, 7
  br i1 %63, label %switch.lookup7, label %stream_state_to_str.exit.i53.i

switch.lookup7:                                   ; preds = %report_ssl_state.exit.i
  %64 = zext nneg i32 %48 to i64
  %switch.gep8 = getelementptr inbounds nuw [7 x ptr], ptr @switch.table.report_obj.24, i64 0, i64 %64
  %switch.load9 = load ptr, ptr %switch.gep8, align 8
  br label %stream_state_to_str.exit.i53.i

stream_state_to_str.exit.i53.i:                   ; preds = %report_ssl_state.exit.i, %switch.lookup7
  %.0.i.i54.i = phi ptr [ %switch.load9, %switch.lookup7 ], [ @.str.299, %report_ssl_state.exit.i ]
  %65 = call i32 (ptr, ptr, ...) @BIO_printf(ptr noundef %1, ptr noundef nonnull @.str.307, ptr noundef nonnull @.str.293, ptr noundef nonnull @.str.308, ptr noundef nonnull %.0.i.i54.i, i32 noundef %48) #12
  %.not9.i55.i = icmp eq i64 %62, -1
  br i1 %.not9.i55.i, label %report_ssl_state.exit56.i, label %66

66:                                               ; preds = %stream_state_to_str.exit.i53.i
  %67 = call i32 (ptr, ptr, ...) @BIO_printf(ptr noundef %1, ptr noundef nonnull @.str.310, i64 noundef %62) #12
  br label %report_ssl_state.exit56.i

report_ssl_state.exit56.i:                        ; preds = %66, %stream_state_to_str.exit.i53.i
  %68 = call i32 (ptr, ptr, ...) @BIO_printf(ptr noundef %1, ptr noundef nonnull @.str.226) #12
  call void @llvm.lifetime.end.p0(i64 8, ptr nonnull %5) #12
  call void @llvm.lifetime.end.p0(i64 8, ptr nonnull %4) #12
  br label %report_ssl.exit

report_ssl.exit:                                  ; preds = %.thread.i, %16, %42, %report_ssl_state.exit56.i
  call void @llvm.lifetime.end.p0(i64 40, ptr nonnull %3) #12
  %69 = call i32 @ERR_pop_to_mark() #12
  ret void
}